; Function Attrs: mustprogress nounwind uwtable
define hidden noundef ptr @_ZN14JfrOSInterface18JfrOSInterfaceImpl24system_process_interfaceEv(ptr nocapture noundef nonnull align 8 dereferenceable(32) %0) local_unnamed_addr #1 align 2 {
  %2 = getelementptr inbounds i8, ptr %0, i64 16
  %3 = load ptr, ptr %2, align 8
  %4 = icmp eq ptr %3, null
  br i1 %4, label %5, label %27

5:                                                ; preds = %1
  %6 = tail call align 8 ptr @llvm.threadlocal.address.p0(ptr align 8 @_ZN6Thread12_thr_currentE)
  %7 = load ptr, ptr %6, align 8
  %8 = getelementptr inbounds i8, ptr %7, i64 800
  %9 = load ptr, ptr %8, align 8
  %10 = getelementptr inbounds i8, ptr %9, i64 24
  %11 = load ptr, ptr %10, align 8
  %12 = getelementptr inbounds i8, ptr %9, i64 32
  %13 = load ptr, ptr %12, align 8
  %14 = getelementptr inbounds i8, ptr %9, i64 40
  %15 = load ptr, ptr %14, align 8
  %16 = getelementptr inbounds i8, ptr %9, i64 8
  %17 = load i64, ptr %16, align 8
  %18 = tail call noundef ptr @_Z12AllocateHeapm8MEMFLAGSN17AllocFailStrategy13AllocFailEnumE(i64 noundef 8, i8 noundef zeroext 9, i32 noundef 0) #14
  tail call void @_ZN22SystemProcessInterfaceC1Ev(ptr noundef nonnull align 8 dereferenceable(8) %18) #14
  %19 = tail call noundef zeroext i1 @_ZN22SystemProcessInterface10initializeEv(ptr noundef nonnull align 8 dereferenceable(8) %18) #14
  br i1 %19, label %21, label %20

20:                                               ; preds = %5
  tail call void @_ZN22SystemProcessInterfaceD1Ev(ptr noundef nonnull align 8 dereferenceable(8) %18) #14
  tail call void @_Z8FreeHeapPv(ptr noundef nonnull %18) #14
  br label %21

21:                                               ; preds = %20, %5
  %.0.i = phi ptr [ %18, %5 ], [ null, %20 ]
  %22 = load ptr, ptr %11, align 8
  %.not.i.i.i.i.i = icmp eq ptr %22, null
  br i1 %.not.i.i.i.i.i, label %24, label %23

23:                                               ; preds = %21
  tail call void @_ZN5Arena17set_size_in_bytesEm(ptr noundef nonnull align 8 dereferenceable(48) %9, i64 noundef %17) #14
  tail call void @_ZN5Chunk9next_chopEPS_(ptr noundef nonnull %11) #14
  br label %24

24:                                               ; preds = %23, %21
  %25 = load ptr, ptr %12, align 8
  %.not8.i.i.i.i.i = icmp eq ptr %25, %13
  br i1 %.not8.i.i.i.i.i, label %_ZL16create_interfaceI22SystemProcessInterfaceEPT_v.exit, label %26

26:                                               ; preds = %24
  store ptr %11, ptr %10, align 8
  store ptr %13, ptr %12, align 8
  store ptr %15, ptr %14, align 8
  br label %_ZL16create_interfaceI22SystemProcessInterfaceEPT_v.exit

_ZL16create_interfaceI22SystemProcessInterfaceEPT_v.exit: ; preds = %24, %26
  store ptr %.0.i, ptr %2, align 8
  br label %27

27:                                               ; preds = %_ZL16create_interfaceI22SystemProcessInterfaceEPT_v.exit, %1
  %28 = phi ptr [ %.0.i, %_ZL16create_interfaceI22SystemProcessInterfaceEPT_v.exit ], [ %3, %1 ]
  ret ptr %28
}